; Function Attrs: mustprogress nofree norecurse nosync nounwind willreturn memory(argmem: write) uwtable
define void @_ZNK4LIEF5dwarf4Type8locationEv(ptr dead_on_unwind noalias writable sret(%"struct.LIEF::debug_location_t") align 8 %0, ptr noundef nonnull readnone align 8 captures(none) dereferenceable(24) %1) local_unnamed_addr #1 align 2 {
  %3 = getelementptr inbounds nuw i8, ptr %0, i64 16
  store ptr %3, ptr %0, align 8, !tbaa !9
  %4 = getelementptr inbounds nuw i8, ptr %0, i64 8
  store i64 0, ptr %4, align 8, !tbaa !12
  store i8 0, ptr %3, align 8, !tbaa !15
  %5 = getelementptr inbounds nuw i8, ptr %0, i64 32
  store i64 0, ptr %5, align 8, !tbaa !22
  ret void
}